target datalayout = "e-m:e-p270:32:32-p271:32:32-p272:64:64-i64:64-i128:128-f80:128-n8:16:32:64-S128"
target triple = "x86_64-pc-linux-gnu"

%struct.STBIR_RESIZE = type { ptr, ptr, i32, i32, double, double, double, double, ptr, ptr, i32, i32, i32, i32, i32, i32, ptr, i32, i32, i32, i32, i32, i32, i32, i32, i32, i32, i32, i32, i32, i32, ptr, ptr, ptr, ptr, ptr }

; Function Attrs: nounwind uwtable
define hidden void @stbir_set_buffer_ptrs(ptr noundef %0, ptr noundef %1, i32 noundef %2, ptr noundef %3, i32 noundef %4) #0 {
  %6 = alloca ptr, align 8
  %7 = alloca ptr, align 8
  %8 = alloca i32, align 4
  %9 = alloca ptr, align 8
  %10 = alloca i32, align 4
  store ptr %0, ptr %6, align 8
  store ptr %1, ptr %7, align 8
  store i32 %2, ptr %8, align 4
  store ptr %3, ptr %9, align 8
  store i32 %4, ptr %10, align 4
  %11 = load ptr, ptr %7, align 8
  %12 = load ptr, ptr %6, align 8
  %13 = getelementptr inbounds nuw %struct.STBIR_RESIZE, ptr %12, i32 0, i32 1
  store ptr %11, ptr %13, align 8
  %14 = load i32, ptr %8, align 4
  %15 = load ptr, ptr %6, align 8
  %16 = getelementptr inbounds nuw %struct.STBIR_RESIZE, ptr %15, i32 0, i32 17
  store i32 %14, ptr %16, align 8
  %17 = load ptr, ptr %9, align 8
  %18 = load ptr, ptr %6, align 8
  %19 = getelementptr inbounds nuw %struct.STBIR_RESIZE, ptr %18, i32 0, i32 9
  store ptr %17, ptr %19, align 8
  %20 = load i32, ptr %10, align 4
  %21 = load ptr, ptr %6, align 8
  %22 = getelementptr inbounds nuw %struct.STBIR_RESIZE, ptr %21, i32 0, i32 18
  store i32 %20, ptr %22, align 4
  %23 = load ptr, ptr %6, align 8
  %24 = getelementptr inbounds nuw %struct.STBIR_RESIZE, ptr %23, i32 0, i32 35
  %25 = load ptr, ptr %24, align 8
  %26 = icmp ne ptr %25, null
  br i1 %26, label %27, label %37

27:                                               ; preds = %5
  %28 = load ptr, ptr %6, align 8
  %29 = getelementptr inbounds nuw %struct.STBIR_RESIZE, ptr %28, i32 0, i32 21
  %30 = load i32, ptr %29, align 8
  %31 = icmp ne i32 %30, 0
  br i1 %31, label %37, label %32

32:                                               ; preds = %27
  %33 = load ptr, ptr %6, align 8
  %34 = getelementptr inbounds nuw %struct.STBIR_RESIZE, ptr %33, i32 0, i32 35
  %35 = load ptr, ptr %34, align 8
  %36 = load ptr, ptr %6, align 8
  call void @stbir__update_info_from_resize(ptr noundef %35, ptr noundef %36)
  br label %37

37:                                               ; preds = %32, %27, %5
  ret void
}