; Function Attrs: mustprogress nofree norecurse nosync nounwind willreturn memory(readwrite, inaccessiblemem: none) uwtable
define hidden void @stbir_set_buffer_ptrs(ptr noundef captures(none) initializes((8, 16), (64, 72), (104, 112)) %0, ptr noundef %1, i32 noundef %2, ptr noundef %3, i32 noundef %4) local_unnamed_addr #18 {
  %6 = getelementptr inbounds nuw i8, ptr %0, i64 8
  store ptr %1, ptr %6, align 8
  %7 = getelementptr inbounds nuw i8, ptr %0, i64 104
  store i32 %2, ptr %7, align 8
  %8 = getelementptr inbounds nuw i8, ptr %0, i64 64
  store ptr %3, ptr %8, align 8
  %9 = getelementptr inbounds nuw i8, ptr %0, i64 108
  store i32 %4, ptr %9, align 4
  %10 = getelementptr inbounds nuw i8, ptr %0, i64 192
  %11 = load ptr, ptr %10, align 8
  %.not = icmp eq ptr %11, null
  br i1 %.not, label %16, label %12

12:                                               ; preds = %5
  %13 = getelementptr inbounds nuw i8, ptr %0, i64 120
  %14 = load i32, ptr %13, align 8
  %.not11 = icmp eq i32 %14, 0
  br i1 %.not11, label %15, label %16

15:                                               ; preds = %12
  tail call fastcc void @stbir__update_info_from_resize(ptr noundef %11, ptr noundef nonnull %0)
  br label %16

16:                                               ; preds = %15, %12, %5
  ret void
}